target datalayout = "e-m:e-p270:32:32-p271:32:32-p272:64:64-i64:64-i128:128-f80:128-n8:16:32:64-S128"
target triple = "x86_64-pc-linux-gnu"

%struct.H5D_farray_ctx_t = type { i64, i64 }

; Function Attrs: nounwind uwtable
define internal i32 @H5D__farray_decode(ptr noundef %0, ptr noundef %1, i64 noundef %2, ptr noundef %3) #0 {
  %5 = alloca ptr, align 8
  %6 = alloca ptr, align 8
  %7 = alloca i64, align 8
  %8 = alloca ptr, align 8
  %9 = alloca ptr, align 8
  %10 = alloca ptr, align 8
  %11 = alloca ptr, align 8
  store ptr %0, ptr %5, align 8
  store ptr %1, ptr %6, align 8
  store i64 %2, ptr %7, align 8
  store ptr %3, ptr %8, align 8
  %12 = load ptr, ptr %8, align 8
  store ptr %12, ptr %9, align 8
  %13 = load ptr, ptr %6, align 8
  store ptr %13, ptr %10, align 8
  %14 = load ptr, ptr %5, align 8
  store ptr %14, ptr %11, align 8
  br label %15

15:                                               ; preds = %18, %4
  %16 = load i64, ptr %7, align 8
  %17 = icmp ne i64 %16, 0
  br i1 %17, label %18, label %27

18:                                               ; preds = %15
  %19 = load ptr, ptr %9, align 8
  %20 = getelementptr inbounds %struct.H5D_farray_ctx_t, ptr %19, i32 0, i32 0
  %21 = load i64, ptr %20, align 8
  %22 = load ptr, ptr %10, align 8
  call void @H5F_addr_decode_len(i64 noundef %21, ptr noundef %11, ptr noundef %22)
  %23 = load ptr, ptr %10, align 8
  %24 = getelementptr inbounds i64, ptr %23, i32 1
  store ptr %24, ptr %10, align 8
  %25 = load i64, ptr %7, align 8
  %26 = add i64 %25, -1
  store i64 %26, ptr %7, align 8
  br label %15

27:                                               ; preds = %15
  ret i32 0
}