; Function Attrs: nounwind uwtable
define internal noundef i32 @H5D__farray_decode(ptr noundef %0, ptr noundef %1, i64 noundef %2, ptr nocapture noundef readonly %3) #1 {
  %5 = alloca ptr, align 8
  store ptr %0, ptr %5, align 8
  %.not8 = icmp eq i64 %2, 0
  br i1 %.not8, label %._crit_edge, label %.lr.ph

.lr.ph:                                           ; preds = %4, %.lr.ph
  %.010 = phi ptr [ %7, %.lr.ph ], [ %1, %4 ]
  %.079 = phi i64 [ %8, %.lr.ph ], [ %2, %4 ]
  %6 = load i64, ptr %3, align 8
  call void @H5F_addr_decode_len(i64 noundef %6, ptr noundef nonnull %5, ptr noundef %.010) #11
  %7 = getelementptr inbounds i8, ptr %.010, i64 8
  %8 = add i64 %.079, -1
  %.not = icmp eq i64 %8, 0
  br i1 %.not, label %._crit_edge, label %.lr.ph

._crit_edge:                                      ; preds = %.lr.ph, %4
  ret i32 0
}